; Function Attrs: mustprogress nofree nounwind willreturn memory(write, argmem: none, inaccessiblemem: readwrite) uwtable
define noalias noundef ptr @Abc_NtkManCutStart(i32 noundef %0, i32 noundef %1, i32 noundef %2, i32 noundef %3) local_unnamed_addr #2 {
  %calloc = tail call dereferenceable_or_null(56) ptr @calloc(i64 1, i64 56)
  %5 = tail call noalias dereferenceable_or_null(16) ptr @malloc(i64 noundef 16) #12
  %6 = getelementptr inbounds nuw i8, ptr %5, i64 4
  store i32 0, ptr %6, align 4, !tbaa !11
  store i32 100, ptr %5, align 8, !tbaa !13
  %7 = tail call noalias dereferenceable_or_null(800) ptr @malloc(i64 noundef 800) #12
  %8 = getelementptr inbounds nuw i8, ptr %5, i64 8
  store ptr %7, ptr %8, align 8, !tbaa !14
  %9 = getelementptr inbounds nuw i8, ptr %calloc, i64 16
  store ptr %5, ptr %9, align 8, !tbaa !37
  %10 = tail call noalias dereferenceable_or_null(16) ptr @malloc(i64 noundef 16) #12
  %11 = getelementptr inbounds nuw i8, ptr %10, i64 4
  store i32 0, ptr %11, align 4, !tbaa !11
  store i32 100, ptr %10, align 8, !tbaa !13
  %12 = tail call noalias dereferenceable_or_null(800) ptr @malloc(i64 noundef 800) #12
  %13 = getelementptr inbounds nuw i8, ptr %10, i64 8
  store ptr %12, ptr %13, align 8, !tbaa !14
  %14 = getelementptr inbounds nuw i8, ptr %calloc, i64 24
  store ptr %10, ptr %14, align 8, !tbaa !43
  %15 = tail call noalias dereferenceable_or_null(16) ptr @malloc(i64 noundef 16) #12
  %16 = getelementptr inbounds nuw i8, ptr %15, i64 4
  store i32 0, ptr %16, align 4, !tbaa !11
  store i32 100, ptr %15, align 8, !tbaa !13
  %17 = tail call noalias dereferenceable_or_null(800) ptr @malloc(i64 noundef 800) #12
  %18 = getelementptr inbounds nuw i8, ptr %15, i64 8
  store ptr %17, ptr %18, align 8, !tbaa !14
  %19 = getelementptr inbounds nuw i8, ptr %calloc, i64 32
  store ptr %15, ptr %19, align 8, !tbaa !3
  %20 = tail call noalias dereferenceable_or_null(16) ptr @malloc(i64 noundef 16) #12
  %21 = getelementptr inbounds nuw i8, ptr %20, i64 4
  store i32 0, ptr %21, align 4, !tbaa !80
  store i32 100, ptr %20, align 8, !tbaa !82
  %22 = tail call noalias dereferenceable_or_null(800) ptr @malloc(i64 noundef 800) #12
  %23 = getelementptr inbounds nuw i8, ptr %20, i64 8
  store ptr %22, ptr %23, align 8, !tbaa !83
  %24 = getelementptr inbounds nuw i8, ptr %calloc, i64 40
  store ptr %20, ptr %24, align 8, !tbaa !84
  %25 = tail call noalias dereferenceable_or_null(16) ptr @malloc(i64 noundef 16) #12
  %26 = getelementptr inbounds nuw i8, ptr %25, i64 4
  store i32 0, ptr %26, align 4, !tbaa !11
  store i32 100, ptr %25, align 8, !tbaa !13
  %27 = tail call noalias dereferenceable_or_null(800) ptr @malloc(i64 noundef 800) #12
  %28 = getelementptr inbounds nuw i8, ptr %25, i64 8
  store ptr %27, ptr %28, align 8, !tbaa !14
  %29 = getelementptr inbounds nuw i8, ptr %calloc, i64 48
  store ptr %25, ptr %29, align 8, !tbaa !85
  store i32 %0, ptr %calloc, align 8, !tbaa !38
  %30 = getelementptr inbounds nuw i8, ptr %calloc, i64 4
  store i32 %1, ptr %30, align 4, !tbaa !45
  %31 = getelementptr inbounds nuw i8, ptr %calloc, i64 8
  store i32 %2, ptr %31, align 8, !tbaa !39
  %32 = getelementptr inbounds nuw i8, ptr %calloc, i64 12
  store i32 %3, ptr %32, align 4, !tbaa !46
  ret ptr %calloc
}